target datalayout = "e-m:e-p270:32:32-p271:32:32-p272:64:64-i64:64-i128:128-f80:128-n8:16:32:64-S128"
target triple = "x86_64-pc-linux-gnu"

@.str.117 = private unnamed_addr constant [10 x i8] c"ethertype\00", align 1
@isl_cap_handle = internal global ptr null, align 8
@ipx_cap_handle = internal global ptr null, align 8
@llc_cap_handle = internal global ptr null, align 8

; Function Attrs: inlinehint nounwind null_pointer_is_valid sspstrong uwtable
define internal zeroext i16 @pntoh16(ptr noundef %0) #6 {
  %2 = alloca ptr, align 8
  store ptr %0, ptr %2, align 8
  %3 = load ptr, ptr %2, align 8
  %4 = getelementptr i8, ptr %3, i64 0
  %5 = load i8, ptr %4, align 1
  %6 = zext i8 %5 to i16
  %7 = zext i16 %6 to i32
  %8 = shl i32 %7, 8
  %9 = load ptr, ptr %2, align 8
  %10 = getelementptr i8, ptr %9, i64 1
  %11 = load i8, ptr %10, align 1
  %12 = zext i8 %11 to i16
  %13 = zext i16 %12 to i32
  %14 = shl i32 %13, 0
  %15 = or i32 %8, %14
  %16 = trunc i32 %15 to i16
  ret i16 %16
}

; Function Attrs: null_pointer_is_valid sspstrong uwtable
define internal zeroext i1 @capture_eth(ptr noundef %0, i32 noundef %1, i32 noundef %2, ptr noundef %3, ptr noundef %4) #0 {
  %6 = alloca i1, align 1
  %7 = alloca ptr, align 8
  %8 = alloca i32, align 4
  %9 = alloca i32, align 4
  %10 = alloca ptr, align 8
  %11 = alloca ptr, align 8
  %12 = alloca i16, align 2
  %13 = alloca i16, align 2
  %14 = alloca i32, align 4
  %15 = alloca i32, align 4
  store ptr %0, ptr %7, align 8
  store i32 %1, ptr %8, align 4
  store i32 %2, ptr %9, align 4
  store ptr %3, ptr %10, align 8
  store ptr %4, ptr %11, align 8
  call void @llvm.lifetime.start.p0(i64 2, ptr %12) #10
  call void @llvm.lifetime.start.p0(i64 2, ptr %13) #10
  call void @llvm.lifetime.start.p0(i64 4, ptr %14) #10
  %16 = load i32, ptr %8, align 4
  %17 = add i32 %16, 14
  %18 = load i32, ptr %8, align 4
  %19 = icmp ugt i32 %17, %18
  br i1 %19, label %20, label %25

20:                                               ; preds = %5
  %21 = load i32, ptr %8, align 4
  %22 = add i32 %21, 14
  %23 = load i32, ptr %9, align 4
  %24 = icmp ule i32 %22, %23
  br i1 %24, label %26, label %25

25:                                               ; preds = %20, %5
  store i1 false, ptr %6, align 1
  store i32 1, ptr %15, align 4
  br label %181

26:                                               ; preds = %20
  %27 = load ptr, ptr %7, align 8
  %28 = load i32, ptr %8, align 4
  %29 = add i32 %28, 12
  %30 = sext i32 %29 to i64
  %31 = getelementptr i8, ptr %27, i64 %30
  %32 = call zeroext i16 @pntoh16(ptr noundef %31)
  store i16 %32, ptr %12, align 2
  %33 = load i16, ptr %12, align 2
  %34 = zext i16 %33 to i32
  %35 = icmp sle i32 %34, 1500
  br i1 %35, label %36, label %97

36:                                               ; preds = %26
  %37 = load ptr, ptr %7, align 8
  %38 = load i32, ptr %8, align 4
  %39 = sext i32 %38 to i64
  %40 = getelementptr i8, ptr %37, i64 %39
  %41 = load i8, ptr %40, align 1
  %42 = zext i8 %41 to i32
  %43 = icmp eq i32 %42, 1
  br i1 %43, label %52, label %44

44:                                               ; preds = %36
  %45 = load ptr, ptr %7, align 8
  %46 = load i32, ptr %8, align 4
  %47 = sext i32 %46 to i64
  %48 = getelementptr i8, ptr %45, i64 %47
  %49 = load i8, ptr %48, align 1
  %50 = zext i8 %49 to i32
  %51 = icmp eq i32 %50, 12
  br i1 %51, label %52, label %96

52:                                               ; preds = %44, %36
  %53 = load ptr, ptr %7, align 8
  %54 = load i32, ptr %8, align 4
  %55 = add i32 %54, 1
  %56 = sext i32 %55 to i64
  %57 = getelementptr i8, ptr %53, i64 %56
  %58 = load i8, ptr %57, align 1
  %59 = zext i8 %58 to i32
  %60 = icmp eq i32 %59, 0
  br i1 %60, label %61, label %96

61:                                               ; preds = %52
  %62 = load ptr, ptr %7, align 8
  %63 = load i32, ptr %8, align 4
  %64 = add i32 %63, 2
  %65 = sext i32 %64 to i64
  %66 = getelementptr i8, ptr %62, i64 %65
  %67 = load i8, ptr %66, align 1
  %68 = zext i8 %67 to i32
  %69 = icmp eq i32 %68, 12
  br i1 %69, label %70, label %96

70:                                               ; preds = %61
  %71 = load ptr, ptr %7, align 8
  %72 = load i32, ptr %8, align 4
  %73 = add i32 %72, 3
  %74 = sext i32 %73 to i64
  %75 = getelementptr i8, ptr %71, i64 %74
  %76 = load i8, ptr %75, align 1
  %77 = zext i8 %76 to i32
  %78 = icmp eq i32 %77, 0
  br i1 %78, label %79, label %96

79:                                               ; preds = %70
  %80 = load ptr, ptr %7, align 8
  %81 = load i32, ptr %8, align 4
  %82 = add i32 %81, 4
  %83 = sext i32 %82 to i64
  %84 = getelementptr i8, ptr %80, i64 %83
  %85 = load i8, ptr %84, align 1
  %86 = zext i8 %85 to i32
  %87 = icmp eq i32 %86, 0
  br i1 %87, label %88, label %96

88:                                               ; preds = %79
  %89 = load ptr, ptr @isl_cap_handle, align 8
  %90 = load ptr, ptr %7, align 8
  %91 = load i32, ptr %8, align 4
  %92 = load i32, ptr %9, align 4
  %93 = load ptr, ptr %10, align 8
  %94 = load ptr, ptr %11, align 8
  %95 = call zeroext i1 @call_capture_dissector(ptr noundef %89, ptr noundef %90, i32 noundef %91, i32 noundef %92, ptr noundef %93, ptr noundef %94)
  store i1 %95, ptr %6, align 1
  store i32 1, ptr %15, align 4
  br label %181

96:                                               ; preds = %79, %70, %61, %52, %44
  br label %97

97:                                               ; preds = %96, %26
  %98 = load i16, ptr %12, align 2
  %99 = zext i16 %98 to i32
  %100 = icmp sgt i32 %99, 1500
  br i1 %100, label %101, label %106

101:                                              ; preds = %97
  %102 = load i16, ptr %12, align 2
  %103 = zext i16 %102 to i32
  %104 = icmp slt i32 %103, 1536
  br i1 %104, label %105, label %106

105:                                              ; preds = %101
  store i1 false, ptr %6, align 1
  store i32 1, ptr %15, align 4
  br label %181

106:                                              ; preds = %101, %97
  %107 = load i16, ptr %12, align 2
  %108 = zext i16 %107 to i32
  %109 = icmp sle i32 %108, 1500
  br i1 %109, label %110, label %150

110:                                              ; preds = %106
  %111 = load i16, ptr %12, align 2
  %112 = zext i16 %111 to i32
  %113 = icmp ne i32 %112, 0
  br i1 %113, label %114, label %150

114:                                              ; preds = %110
  %115 = load i16, ptr %12, align 2
  store i16 %115, ptr %13, align 2
  %116 = load ptr, ptr %7, align 8
  %117 = load i32, ptr %8, align 4
  %118 = add i32 %117, 14
  %119 = sext i32 %118 to i64
  %120 = getelementptr i8, ptr %116, i64 %119
  %121 = load i8, ptr %120, align 1
  %122 = zext i8 %121 to i32
  %123 = icmp eq i32 %122, 255
  br i1 %123, label %124, label %134

124:                                              ; preds = %114
  %125 = load ptr, ptr %7, align 8
  %126 = load i32, ptr %8, align 4
  %127 = add i32 %126, 15
  %128 = sext i32 %127 to i64
  %129 = getelementptr i8, ptr %125, i64 %128
  %130 = load i8, ptr %129, align 1
  %131 = zext i8 %130 to i32
  %132 = icmp eq i32 %131, 255
  br i1 %132, label %133, label %134

133:                                              ; preds = %124
  store i32 2, ptr %14, align 4
  br label %135

134:                                              ; preds = %124, %114
  store i32 1, ptr %14, align 4
  br label %135

135:                                              ; preds = %134, %133
  %136 = load i32, ptr %8, align 4
  %137 = add i32 %136, 14
  %138 = load i16, ptr %13, align 2
  %139 = zext i16 %138 to i32
  %140 = add i32 %139, %137
  %141 = trunc i32 %140 to i16
  store i16 %141, ptr %13, align 2
  %142 = load i32, ptr %9, align 4
  %143 = load i16, ptr %13, align 2
  %144 = zext i16 %143 to i32
  %145 = icmp sgt i32 %142, %144
  br i1 %145, label %146, label %149

146:                                              ; preds = %135
  %147 = load i16, ptr %13, align 2
  %148 = zext i16 %147 to i32
  store i32 %148, ptr %9, align 4
  br label %149

149:                                              ; preds = %146, %135
  br label %151

150:                                              ; preds = %110, %106
  store i32 0, ptr %14, align 4
  br label %151

151:                                              ; preds = %150, %149
  %152 = load i32, ptr %8, align 4
  %153 = add i32 %152, 14
  store i32 %153, ptr %8, align 4
  %154 = load i32, ptr %14, align 4
  switch i32 %154, label %180 [
    i32 2, label %155
    i32 1, label %163
    i32 0, label %171
  ]

155:                                              ; preds = %151
  %156 = load ptr, ptr @ipx_cap_handle, align 8
  %157 = load ptr, ptr %7, align 8
  %158 = load i32, ptr %8, align 4
  %159 = load i32, ptr %9, align 4
  %160 = load ptr, ptr %10, align 8
  %161 = load ptr, ptr %11, align 8
  %162 = call zeroext i1 @call_capture_dissector(ptr noundef %156, ptr noundef %157, i32 noundef %158, i32 noundef %159, ptr noundef %160, ptr noundef %161)
  store i1 %162, ptr %6, align 1
  store i32 1, ptr %15, align 4
  br label %181

163:                                              ; preds = %151
  %164 = load ptr, ptr @llc_cap_handle, align 8
  %165 = load ptr, ptr %7, align 8
  %166 = load i32, ptr %8, align 4
  %167 = load i32, ptr %9, align 4
  %168 = load ptr, ptr %10, align 8
  %169 = load ptr, ptr %11, align 8
  %170 = call zeroext i1 @call_capture_dissector(ptr noundef %164, ptr noundef %165, i32 noundef %166, i32 noundef %167, ptr noundef %168, ptr noundef %169)
  store i1 %170, ptr %6, align 1
  store i32 1, ptr %15, align 4
  br label %181

171:                                              ; preds = %151
  %172 = load i16, ptr %12, align 2
  %173 = zext i16 %172 to i32
  %174 = load ptr, ptr %7, align 8
  %175 = load i32, ptr %8, align 4
  %176 = load i32, ptr %9, align 4
  %177 = load ptr, ptr %10, align 8
  %178 = load ptr, ptr %11, align 8
  %179 = call zeroext i1 @try_capture_dissector(ptr noundef @.str.117, i32 noundef %173, ptr noundef %174, i32 noundef %175, i32 noundef %176, ptr noundef %177, ptr noundef %178)
  store i1 %179, ptr %6, align 1
  store i32 1, ptr %15, align 4
  br label %181

180:                                              ; preds = %151
  store i1 false, ptr %6, align 1
  store i32 1, ptr %15, align 4
  br label %181

181:                                              ; preds = %180, %171, %163, %155, %105, %88, %25
  call void @llvm.lifetime.end.p0(i64 4, ptr %14) #10
  call void @llvm.lifetime.end.p0(i64 2, ptr %13) #10
  call void @llvm.lifetime.end.p0(i64 2, ptr %12) #10
  %182 = load i1, ptr %6, align 1
  ret i1 %182
}