; Function Attrs: null_pointer_is_valid sspstrong uwtable
define internal zeroext i1 @capture_eth(ptr noundef %0, i32 noundef %1, i32 noundef %2, ptr noundef %3, ptr noundef %4) #0 {
  %6 = add i32 %1, 14
  %7 = icmp ugt i32 %1, -15
  %.not = icmp ugt i32 %6, %2
  %or.cond69 = or i1 %7, %.not
  br i1 %or.cond69, label %78, label %8

8:                                                ; preds = %5
  %9 = add nuw i32 %1, 12
  %10 = sext i32 %9 to i64
  %11 = getelementptr i8, ptr %0, i64 %10
  %.val = load i8, ptr %11, align 1
  %12 = getelementptr i8, ptr %11, i64 1
  %.val70 = load i8, ptr %12, align 1
  %13 = zext i8 %.val to i16
  %14 = shl nuw i16 %13, 8
  %15 = zext i8 %.val70 to i16
  %16 = or disjoint i16 %14, %15
  %17 = zext i16 %16 to i32
  %18 = icmp ult i16 %16, 1501
  br i1 %18, label %19, label %50

19:                                               ; preds = %8
  %20 = sext i32 %1 to i64
  %21 = getelementptr i8, ptr %0, i64 %20
  %22 = load i8, ptr %21, align 1
  switch i8 %22, label %52 [
    i8 1, label %23
    i8 12, label %23
  ]

23:                                               ; preds = %19, %19
  %24 = add nuw i32 %1, 1
  %25 = sext i32 %24 to i64
  %26 = getelementptr i8, ptr %0, i64 %25
  %27 = load i8, ptr %26, align 1
  %28 = icmp eq i8 %27, 0
  br i1 %28, label %29, label %52

29:                                               ; preds = %23
  %30 = add nuw i32 %1, 2
  %31 = sext i32 %30 to i64
  %32 = getelementptr i8, ptr %0, i64 %31
  %33 = load i8, ptr %32, align 1
  %34 = icmp eq i8 %33, 12
  br i1 %34, label %35, label %52

35:                                               ; preds = %29
  %36 = add nuw i32 %1, 3
  %37 = sext i32 %36 to i64
  %38 = getelementptr i8, ptr %0, i64 %37
  %39 = load i8, ptr %38, align 1
  %40 = icmp eq i8 %39, 0
  br i1 %40, label %41, label %52

41:                                               ; preds = %35
  %42 = add nuw i32 %1, 4
  %43 = sext i32 %42 to i64
  %44 = getelementptr i8, ptr %0, i64 %43
  %45 = load i8, ptr %44, align 1
  %46 = icmp eq i8 %45, 0
  br i1 %46, label %47, label %52

47:                                               ; preds = %41
  %48 = load ptr, ptr @isl_cap_handle, align 8
  %49 = tail call zeroext i1 @call_capture_dissector(ptr noundef %48, ptr noundef %0, i32 noundef %1, i32 noundef %2, ptr noundef %3, ptr noundef %4)
  br label %78

50:                                               ; preds = %8
  %51 = add i16 %16, -1501
  %or.cond = icmp ult i16 %51, 35
  br i1 %or.cond, label %78, label %.thread72

52:                                               ; preds = %19, %23, %29, %35, %41
  %53 = add nsw i16 %16, -1
  %or.cond5 = icmp ult i16 %53, 1500
  br i1 %or.cond5, label %54, label %.thread72

54:                                               ; preds = %52
  %55 = sext i32 %6 to i64
  %56 = getelementptr i8, ptr %0, i64 %55
  %57 = load i8, ptr %56, align 1
  %58 = icmp eq i8 %57, -1
  br i1 %58, label %59, label %71

59:                                               ; preds = %54
  %60 = add i32 %1, 15
  %61 = sext i32 %60 to i64
  %62 = getelementptr i8, ptr %0, i64 %61
  %63 = load i8, ptr %62, align 1
  %64 = icmp eq i8 %63, -1
  br i1 %64, label %65, label %71

65:                                               ; preds = %59
  %66 = trunc i32 %6 to i16
  %67 = add i16 %16, %66
  %68 = zext i16 %67 to i32
  %spec.select81 = tail call i32 @llvm.smin.i32(i32 %2, i32 %68)
  %69 = load ptr, ptr @ipx_cap_handle, align 8
  %70 = tail call zeroext i1 @call_capture_dissector(ptr noundef %69, ptr noundef %0, i32 noundef %6, i32 noundef %spec.select81, ptr noundef %3, ptr noundef %4)
  br label %78

71:                                               ; preds = %59, %54
  %72 = trunc i32 %6 to i16
  %73 = add i16 %16, %72
  %74 = zext i16 %73 to i32
  %spec.select = tail call i32 @llvm.smin.i32(i32 %2, i32 %74)
  %75 = load ptr, ptr @llc_cap_handle, align 8
  %76 = tail call zeroext i1 @call_capture_dissector(ptr noundef %75, ptr noundef %0, i32 noundef %6, i32 noundef %spec.select, ptr noundef %3, ptr noundef %4)
  br label %78

.thread72:                                        ; preds = %50, %52
  %77 = tail call zeroext i1 @try_capture_dissector(ptr noundef nonnull @.str.117, i32 noundef %17, ptr noundef %0, i32 noundef %6, i32 noundef %2, ptr noundef %3, ptr noundef %4)
  br label %78

78:                                               ; preds = %50, %5, %.thread72, %71, %65, %47
  %.061 = phi i1 [ %49, %47 ], [ %77, %.thread72 ], [ %76, %71 ], [ %70, %65 ], [ false, %5 ], [ false, %50 ]
  ret i1 %.061
}